; Function Attrs: mustprogress nounwind uwtable
define void @_ZN5folly12EventHandlerD2Ev(ptr noundef nonnull align 8 dereferenceable(184) initializes((0, 8)) %0) unnamed_addr #3 align 2 personality ptr @__gxx_personality_v0 {
  store ptr getelementptr inbounds nuw inrange(-16, 24) (i8, ptr @_ZTVN5folly12EventHandlerE, i64 16), ptr %0, align 8, !tbaa !7
  %2 = getelementptr inbounds nuw i8, ptr %0, i64 24
  %3 = load i16, ptr %2, align 8, !tbaa !30
  %4 = and i16 %3, 15
  %.not.i = icmp eq i16 %4, 0
  br i1 %.not.i, label %_ZN5folly12EventHandler17unregisterHandlerEv.exit, label %5

5:                                                ; preds = %1
  %6 = getelementptr inbounds nuw i8, ptr %0, i64 8
  %7 = invoke noundef i32 @_ZN5folly14EventBaseEvent12eb_event_delEv(ptr noundef nonnull align 8 dereferenceable(168) %6)
          to label %_ZN5folly12EventHandler17unregisterHandlerEv.exit unwind label %17

_ZN5folly12EventHandler17unregisterHandlerEv.exit: ; preds = %1, %5
  %8 = getelementptr inbounds nuw i8, ptr %0, i64 144
  %9 = load ptr, ptr %8, align 8, !tbaa !28
  %.not.i1 = icmp eq ptr %9, null
  br i1 %.not.i1, label %_ZN5folly14EventBaseEventD2Ev.exit, label %10

10:                                               ; preds = %_ZN5folly12EventHandler17unregisterHandlerEv.exit
  %11 = getelementptr inbounds nuw i8, ptr %0, i64 152
  %12 = load ptr, ptr %11, align 8, !tbaa !29
  %.not2.i = icmp eq ptr %12, null
  br i1 %.not2.i, label %_ZN5folly14EventBaseEventD2Ev.exit, label %13

13:                                               ; preds = %10
  invoke void %12(ptr noundef nonnull %9)
          to label %_ZN5folly14EventBaseEventD2Ev.exit unwind label %14

14:                                               ; preds = %13
  %15 = landingpad { ptr, i32 }
          catch ptr null
  %16 = extractvalue { ptr, i32 } %15, 0
  tail call void @__clang_call_terminate(ptr %16) #16
  unreachable

_ZN5folly14EventBaseEventD2Ev.exit:               ; preds = %_ZN5folly12EventHandler17unregisterHandlerEv.exit, %10, %13
  ret void

17:                                               ; preds = %5
  %18 = landingpad { ptr, i32 }
          catch ptr null
  %19 = extractvalue { ptr, i32 } %18, 0
  tail call void @__clang_call_terminate(ptr %19) #16
  unreachable
}